target datalayout = "e-m:e-p270:32:32-p271:32:32-p272:64:64-i64:64-i128:128-f80:128-n8:16:32:64-S128"
target triple = "x86_64-pc-linux-gnu"

%struct.H5P_genplist_t = type { ptr, i64, i64, i8, ptr, ptr }
%struct.H5P_plist_cmp_ud_t = type { ptr, i32 }

@H5P_init_g = external global i8, align 1
@H5_libterm_g = external global i8, align 1
@.str.7 = private unnamed_addr constant [100 x i8] c"generated/home/dtcxzyw/WorkSpace/Projects/compilers/llvm-opt-benchmark/bench/hdf5/hdf5/src/H5Pint.c\00", align 1
@H5E_PLIST_g = external global i64, align 8
@H5E_CANTREGISTER_g = external global i64, align 8
@__func__.H5P__cmp_plist = private unnamed_addr constant [15 x i8] c"H5P__cmp_plist\00", align 1
@.str.50 = private unnamed_addr constant [28 x i8] c"unable to iterate over list\00", align 1

; Function Attrs: nounwind uwtable
define i32 @H5P__cmp_plist(ptr noundef %0, ptr noundef %1, ptr noundef %2) #0 {
  %4 = alloca ptr, align 8
  %5 = alloca ptr, align 8
  %6 = alloca ptr, align 8
  %7 = alloca %struct.H5P_plist_cmp_ud_t, align 8
  %8 = alloca i32, align 4
  %9 = alloca i32, align 4
  %10 = alloca i8, align 1
  store ptr %0, ptr %4, align 8, !tbaa !59
  store ptr %1, ptr %5, align 8, !tbaa !59
  store ptr %2, ptr %6, align 8, !tbaa !113
  call void @llvm.lifetime.start.p0(i64 16, ptr %7) #8
  call void @llvm.lifetime.start.p0(i64 4, ptr %8) #8
  store i32 0, ptr %8, align 4, !tbaa !3
  call void @llvm.lifetime.start.p0(i64 4, ptr %9) #8
  store i32 0, ptr %9, align 4, !tbaa !3
  call void @llvm.lifetime.start.p0(i64 1, ptr %10) #8
  store i8 0, ptr %10, align 1, !tbaa !7
  %11 = load i8, ptr @H5P_init_g, align 1, !tbaa !7, !range !9, !noundef !10
  %12 = trunc i8 %11 to i1
  br i1 %12, label %17, label %13

13:                                               ; preds = %3
  %14 = load i8, ptr @H5_libterm_g, align 1, !tbaa !7, !range !9, !noundef !10
  %15 = trunc i8 %14 to i1
  %16 = xor i1 %15, true
  br label %17

17:                                               ; preds = %13, %3
  %18 = phi i1 [ true, %3 ], [ %16, %13 ]
  %19 = xor i1 %18, true
  %20 = xor i1 %19, true
  %21 = zext i1 %20 to i32
  %22 = sext i32 %21 to i64
  %23 = call i64 @llvm.expect.i64(i64 %22, i64 1)
  %24 = icmp ne i64 %23, 0
  br i1 %24, label %25, label %138

25:                                               ; preds = %17
  %26 = load ptr, ptr %4, align 8, !tbaa !59
  %27 = getelementptr inbounds nuw %struct.H5P_genplist_t, ptr %26, i32 0, i32 2
  %28 = load i64, ptr %27, align 8, !tbaa !78
  %29 = load ptr, ptr %5, align 8, !tbaa !59
  %30 = getelementptr inbounds nuw %struct.H5P_genplist_t, ptr %29, i32 0, i32 2
  %31 = load i64, ptr %30, align 8, !tbaa !78
  %32 = icmp ult i64 %28, %31
  br i1 %32, label %33, label %38

33:                                               ; preds = %25
  %34 = load ptr, ptr %6, align 8, !tbaa !113
  store i32 -1, ptr %34, align 4, !tbaa !3
  br label %35

35:                                               ; preds = %33
  store i32 0, ptr %9, align 4, !tbaa !3
  br label %137

36:                                               ; No predecessors!
  br label %37

37:                                               ; preds = %36
  br label %38

38:                                               ; preds = %37, %25
  %39 = load ptr, ptr %4, align 8, !tbaa !59
  %40 = getelementptr inbounds nuw %struct.H5P_genplist_t, ptr %39, i32 0, i32 2
  %41 = load i64, ptr %40, align 8, !tbaa !78
  %42 = load ptr, ptr %5, align 8, !tbaa !59
  %43 = getelementptr inbounds nuw %struct.H5P_genplist_t, ptr %42, i32 0, i32 2
  %44 = load i64, ptr %43, align 8, !tbaa !78
  %45 = icmp ugt i64 %41, %44
  br i1 %45, label %46, label %51

46:                                               ; preds = %38
  %47 = load ptr, ptr %6, align 8, !tbaa !113
  store i32 1, ptr %47, align 4, !tbaa !3
  br label %48

48:                                               ; preds = %46
  store i32 0, ptr %9, align 4, !tbaa !3
  br label %137

49:                                               ; No predecessors!
  br label %50

50:                                               ; preds = %49
  br label %51

51:                                               ; preds = %50, %38
  %52 = load ptr, ptr %4, align 8, !tbaa !59
  %53 = getelementptr inbounds nuw %struct.H5P_genplist_t, ptr %52, i32 0, i32 3
  %54 = load i8, ptr %53, align 8, !tbaa !65, !range !9, !noundef !10
  %55 = trunc i8 %54 to i1
  %56 = zext i1 %55 to i32
  %57 = load ptr, ptr %5, align 8, !tbaa !59
  %58 = getelementptr inbounds nuw %struct.H5P_genplist_t, ptr %57, i32 0, i32 3
  %59 = load i8, ptr %58, align 8, !tbaa !65, !range !9, !noundef !10
  %60 = trunc i8 %59 to i1
  %61 = zext i1 %60 to i32
  %62 = icmp slt i32 %56, %61
  br i1 %62, label %63, label %68

63:                                               ; preds = %51
  %64 = load ptr, ptr %6, align 8, !tbaa !113
  store i32 -1, ptr %64, align 4, !tbaa !3
  br label %65

65:                                               ; preds = %63
  store i32 0, ptr %9, align 4, !tbaa !3
  br label %137

66:                                               ; No predecessors!
  br label %67

67:                                               ; preds = %66
  br label %68

68:                                               ; preds = %67, %51
  %69 = load ptr, ptr %4, align 8, !tbaa !59
  %70 = getelementptr inbounds nuw %struct.H5P_genplist_t, ptr %69, i32 0, i32 3
  %71 = load i8, ptr %70, align 8, !tbaa !65, !range !9, !noundef !10
  %72 = trunc i8 %71 to i1
  %73 = zext i1 %72 to i32
  %74 = load ptr, ptr %5, align 8, !tbaa !59
  %75 = getelementptr inbounds nuw %struct.H5P_genplist_t, ptr %74, i32 0, i32 3
  %76 = load i8, ptr %75, align 8, !tbaa !65, !range !9, !noundef !10
  %77 = trunc i8 %76 to i1
  %78 = zext i1 %77 to i32
  %79 = icmp sgt i32 %73, %78
  br i1 %79, label %80, label %85

80:                                               ; preds = %68
  %81 = load ptr, ptr %6, align 8, !tbaa !113
  store i32 1, ptr %81, align 4, !tbaa !3
  br label %82

82:                                               ; preds = %80
  store i32 0, ptr %9, align 4, !tbaa !3
  br label %137

83:                                               ; No predecessors!
  br label %84

84:                                               ; preds = %83
  br label %85

85:                                               ; preds = %84, %68
  %86 = getelementptr inbounds nuw %struct.H5P_plist_cmp_ud_t, ptr %7, i32 0, i32 1
  store i32 0, ptr %86, align 8, !tbaa !115
  %87 = load ptr, ptr %5, align 8, !tbaa !59
  %88 = getelementptr inbounds nuw %struct.H5P_plist_cmp_ud_t, ptr %7, i32 0, i32 0
  store ptr %87, ptr %88, align 8, !tbaa !117
  %89 = load ptr, ptr %4, align 8, !tbaa !59
  %90 = call i32 @H5P__iterate_plist(ptr noundef %89, i1 noundef zeroext true, ptr noundef %8, ptr noundef @H5P__cmp_plist_cb, ptr noundef %7)
  store i32 %90, ptr %9, align 4, !tbaa !3
  %91 = icmp slt i32 %90, 0
  br i1 %91, label %92, label %111

92:                                               ; preds = %85
  br label %93

93:                                               ; preds = %92
  br label %94

94:                                               ; preds = %93
  br label %95

95:                                               ; preds = %94
  %96 = load i64, ptr @H5E_PLIST_g, align 8, !tbaa !11
  %97 = load i64, ptr @H5E_CANTREGISTER_g, align 8, !tbaa !11
  %98 = call i32 (ptr, ptr, i32, i64, i64, ptr, ...) @H5E_printf_stack(ptr noundef @.str.7, ptr noundef @__func__.H5P__cmp_plist, i32 noundef 4036, i64 noundef %96, i64 noundef %97, ptr noundef @.str.50)
  br label %99

99:                                               ; preds = %95
  br label %100

100:                                              ; preds = %99
  store i8 1, ptr %10, align 1, !tbaa !7
  %101 = load i8, ptr %10, align 1, !tbaa !7, !range !9, !noundef !10
  %102 = trunc i8 %101 to i1
  %103 = zext i1 %102 to i8
  store i8 %103, ptr %10, align 1, !tbaa !7
  br label %104

104:                                              ; preds = %100
  br label %105

105:                                              ; preds = %104
  br label %106

106:                                              ; preds = %105
  store i32 -1, ptr %9, align 4, !tbaa !3
  br label %137

107:                                              ; No predecessors!
  br label %108

108:                                              ; preds = %107
  br label %109

109:                                              ; preds = %108
  br label %110

110:                                              ; preds = %109
  br label %111

111:                                              ; preds = %110, %85
  %112 = load i32, ptr %9, align 4, !tbaa !3
  %113 = icmp ne i32 %112, 0
  br i1 %113, label %114, label %121

114:                                              ; preds = %111
  %115 = getelementptr inbounds nuw %struct.H5P_plist_cmp_ud_t, ptr %7, i32 0, i32 1
  %116 = load i32, ptr %115, align 8, !tbaa !115
  %117 = load ptr, ptr %6, align 8, !tbaa !113
  store i32 %116, ptr %117, align 4, !tbaa !3
  br label %118

118:                                              ; preds = %114
  store i32 0, ptr %9, align 4, !tbaa !3
  br label %137

119:                                              ; No predecessors!
  br label %120

120:                                              ; preds = %119
  br label %121

121:                                              ; preds = %120, %111
  %122 = load ptr, ptr %4, align 8, !tbaa !59
  %123 = getelementptr inbounds nuw %struct.H5P_genplist_t, ptr %122, i32 0, i32 0
  %124 = load ptr, ptr %123, align 8, !tbaa !63
  %125 = load ptr, ptr %5, align 8, !tbaa !59
  %126 = getelementptr inbounds nuw %struct.H5P_genplist_t, ptr %125, i32 0, i32 0
  %127 = load ptr, ptr %126, align 8, !tbaa !63
  %128 = call i32 @H5P__cmp_class(ptr noundef %124, ptr noundef %127)
  %129 = load ptr, ptr %6, align 8, !tbaa !113
  store i32 %128, ptr %129, align 4, !tbaa !3
  %130 = icmp ne i32 %128, 0
  br i1 %130, label %131, label %135

131:                                              ; preds = %121
  br label %132

132:                                              ; preds = %131
  store i32 0, ptr %9, align 4, !tbaa !3
  br label %137

133:                                              ; No predecessors!
  br label %134

134:                                              ; preds = %133
  br label %135

135:                                              ; preds = %134, %121
  %136 = load ptr, ptr %6, align 8, !tbaa !113
  store i32 0, ptr %136, align 4, !tbaa !3
  br label %137

137:                                              ; preds = %135, %132, %118, %106, %82, %65, %48, %35
  br label %138

138:                                              ; preds = %137, %17
  %139 = load i32, ptr %9, align 4, !tbaa !3
  call void @llvm.lifetime.end.p0(i64 1, ptr %10) #8
  call void @llvm.lifetime.end.p0(i64 4, ptr %9) #8
  call void @llvm.lifetime.end.p0(i64 4, ptr %8) #8
  call void @llvm.lifetime.end.p0(i64 16, ptr %7) #8
  ret i32 %139
}