; Function Attrs: nounwind uwtable
define range(i32 -1, 1) i32 @H5P__cmp_plist(ptr noundef %0, ptr noundef %1, ptr noundef writeonly captures(none) %2) local_unnamed_addr #0 {
  %4 = alloca %struct.H5P_plist_cmp_ud_t, align 8
  %5 = alloca i32, align 4
  call void @llvm.lifetime.start.p0(i64 16, ptr nonnull %4) #14
  call void @llvm.lifetime.start.p0(i64 4, ptr nonnull %5) #14
  store i32 0, ptr %5, align 4, !tbaa !45
  %6 = load i8, ptr @H5P_init_g, align 1, !tbaa !3, !range !7, !noundef !8
  %7 = trunc nuw i8 %6 to i1
  %8 = load i8, ptr @H5_libterm_g, align 1, !range !7
  %9 = trunc nuw i8 %8 to i1
  %10 = xor i1 %9, true
  %11 = select i1 %7, i1 true, i1 %10
  br i1 %11, label %12, label %47, !prof !9

12:                                               ; preds = %3
  %13 = getelementptr inbounds nuw i8, ptr %0, i64 16
  %14 = load i64, ptr %13, align 8, !tbaa !56
  %15 = getelementptr inbounds nuw i8, ptr %1, i64 16
  %16 = load i64, ptr %15, align 8, !tbaa !56
  %17 = icmp ult i64 %14, %16
  br i1 %17, label %18, label %19

18:                                               ; preds = %12
  store i32 -1, ptr %2, align 4, !tbaa !45
  br label %47

19:                                               ; preds = %12
  %20 = icmp ugt i64 %14, %16
  br i1 %20, label %21, label %22

21:                                               ; preds = %19
  store i32 1, ptr %2, align 4, !tbaa !45
  br label %47

22:                                               ; preds = %19
  %23 = getelementptr inbounds nuw i8, ptr %0, i64 24
  %24 = load i8, ptr %23, align 8, !tbaa !57, !range !7, !noundef !8
  %25 = getelementptr inbounds nuw i8, ptr %1, i64 24
  %26 = load i8, ptr %25, align 8, !tbaa !57, !range !7, !noundef !8
  %27 = icmp samesign ult i8 %24, %26
  br i1 %27, label %28, label %29

28:                                               ; preds = %22
  store i32 -1, ptr %2, align 4, !tbaa !45
  br label %47

29:                                               ; preds = %22
  %30 = icmp samesign ugt i8 %24, %26
  br i1 %30, label %31, label %32

31:                                               ; preds = %29
  store i32 1, ptr %2, align 4, !tbaa !45
  br label %47

32:                                               ; preds = %29
  %33 = getelementptr inbounds nuw i8, ptr %4, i64 8
  store i32 0, ptr %33, align 8, !tbaa !101
  store ptr %1, ptr %4, align 8, !tbaa !104
  %34 = call i32 @H5P__iterate_plist(ptr noundef nonnull %0, i1 noundef zeroext true, ptr noundef nonnull %5, ptr noundef nonnull @H5P__cmp_plist_cb, ptr noundef nonnull %4)
  %35 = icmp slt i32 %34, 0
  br i1 %35, label %36, label %40

36:                                               ; preds = %32
  %37 = load i64, ptr @H5E_PLIST_g, align 8, !tbaa !10
  %38 = load i64, ptr @H5E_CANTREGISTER_g, align 8, !tbaa !10
  %39 = call i32 (ptr, ptr, i32, i64, i64, ptr, ...) @H5E_printf_stack(ptr noundef nonnull @.str.7, ptr noundef nonnull @__func__.H5P__cmp_plist, i32 noundef 4036, i64 noundef %37, i64 noundef %38, ptr noundef nonnull @.str.50) #14
  br label %47

40:                                               ; preds = %32
  %.not = icmp eq i32 %34, 0
  br i1 %.not, label %43, label %41

41:                                               ; preds = %40
  %42 = load i32, ptr %33, align 8, !tbaa !101
  store i32 %42, ptr %2, align 4, !tbaa !45
  br label %47

43:                                               ; preds = %40
  %44 = load ptr, ptr %0, align 8, !tbaa !54
  %45 = load ptr, ptr %1, align 8, !tbaa !54
  %46 = call i32 @H5P__cmp_class(ptr noundef %44, ptr noundef %45)
  store i32 %46, ptr %2, align 4
  br label %47

47:                                               ; preds = %43, %18, %21, %28, %31, %36, %41, %3
  %.0 = phi i32 [ 0, %18 ], [ 0, %21 ], [ 0, %28 ], [ 0, %31 ], [ -1, %36 ], [ 0, %41 ], [ 0, %3 ], [ 0, %43 ]
  call void @llvm.lifetime.end.p0(i64 4, ptr nonnull %5) #14
  call void @llvm.lifetime.end.p0(i64 16, ptr nonnull %4) #14
  ret i32 %.0
}